target datalayout = "e-m:e-p270:32:32-p271:32:32-p272:64:64-i64:64-i128:128-f80:128-n8:16:32:64-S128"
target triple = "x86_64-pc-linux-gnu"

; Function Attrs: nounwind uwtable
define void @ff_text_read(ptr noundef %0, ptr noundef %1, i64 noundef %2) #0 {
  %4 = alloca ptr, align 8
  %5 = alloca ptr, align 8
  %6 = alloca i64, align 8
  store ptr %0, ptr %4, align 8, !tbaa !4
  store ptr %1, ptr %5, align 8, !tbaa !27
  store i64 %2, ptr %6, align 8, !tbaa !25
  br label %7

7:                                                ; preds = %16, %3
  %8 = load i64, ptr %6, align 8, !tbaa !25
  %9 = icmp ugt i64 %8, 0
  br i1 %9, label %10, label %19

10:                                               ; preds = %7
  %11 = load ptr, ptr %4, align 8, !tbaa !4
  %12 = call i32 @ff_text_r8(ptr noundef %11)
  %13 = trunc i32 %12 to i8
  %14 = load ptr, ptr %5, align 8, !tbaa !27
  %15 = getelementptr inbounds nuw i8, ptr %14, i32 1
  store ptr %15, ptr %5, align 8, !tbaa !27
  store i8 %13, ptr %14, align 1, !tbaa !22
  br label %16

16:                                               ; preds = %10
  %17 = load i64, ptr %6, align 8, !tbaa !25
  %18 = add i64 %17, -1
  store i64 %18, ptr %6, align 8, !tbaa !25
  br label %7, !llvm.loop !28

19:                                               ; preds = %7
  ret void
}