; Function Attrs: nounwind uwtable
define void @ff_text_read(ptr noundef captures(none) %0, ptr noundef writeonly captures(none) %1, i64 noundef %2) local_unnamed_addr #0 {
  %.not4 = icmp eq i64 %2, 0
  br i1 %.not4, label %._crit_edge, label %.lr.ph

.lr.ph:                                           ; preds = %3, %.lr.ph
  %.06 = phi i64 [ %7, %.lr.ph ], [ %2, %3 ]
  %.035 = phi ptr [ %6, %.lr.ph ], [ %1, %3 ]
  %4 = tail call i32 @ff_text_r8(ptr noundef %0)
  %5 = trunc i32 %4 to i8
  %6 = getelementptr inbounds nuw i8, ptr %.035, i64 1
  store i8 %5, ptr %.035, align 1, !tbaa !19
  %7 = add i64 %.06, -1
  %.not = icmp eq i64 %7, 0
  br i1 %.not, label %._crit_edge, label %.lr.ph, !llvm.loop !22

._crit_edge:                                      ; preds = %.lr.ph, %3
  ret void
}